; Function Attrs: mustprogress uwtable
define hidden noundef zeroext i1 @_ZN4cvc58internal6theory7boolean14isMaybeBooleanERKNS0_8TypeNodeE(ptr noundef nonnull align 8 dereferenceable(8) %0) local_unnamed_addr #3 {
  %2 = load ptr, ptr %0, align 8, !tbaa !3
  %3 = getelementptr inbounds nuw i8, ptr %2, i64 8
  %4 = load i64, ptr %3, align 8
  %5 = and i64 %4, 1023
  %6 = icmp eq i64 %5, 13
  br i1 %6, label %_ZNK4cvc58internal8TypeNode9isBooleanEv.exit, label %_ZNK4cvc58internal8TypeNode9isBooleanEv.exit.thread

_ZNK4cvc58internal8TypeNode9isBooleanEv.exit:     ; preds = %1
  %7 = tail call noundef nonnull align 4 dereferenceable(4) ptr @_ZNK4cvc58internal4expr9NodeValue8getConstINS0_12TypeConstantEEERKT_v(ptr noundef nonnull align 8 dereferenceable(24) %2)
  %8 = load i32, ptr %7, align 4, !tbaa !9
  %9 = icmp eq i32 %8, 2
  br i1 %9, label %11, label %_ZNK4cvc58internal8TypeNode9isBooleanEv.exit.thread

_ZNK4cvc58internal8TypeNode9isBooleanEv.exit.thread: ; preds = %1, %_ZNK4cvc58internal8TypeNode9isBooleanEv.exit
  %10 = tail call noundef zeroext i1 @_ZNK4cvc58internal8TypeNode15isFullyAbstractEv(ptr noundef nonnull align 8 dereferenceable(8) %0)
  br label %11

11:                                               ; preds = %_ZNK4cvc58internal8TypeNode9isBooleanEv.exit.thread, %_ZNK4cvc58internal8TypeNode9isBooleanEv.exit
  %12 = phi i1 [ true, %_ZNK4cvc58internal8TypeNode9isBooleanEv.exit ], [ %10, %_ZNK4cvc58internal8TypeNode9isBooleanEv.exit.thread ]
  ret i1 %12
}